target datalayout = "e-m:e-p270:32:32-p271:32:32-p272:64:64-i64:64-i128:128-f80:128-n8:16:32:64-S128"
target triple = "x86_64-pc-linux-gnu"

@.str.6 = private unnamed_addr constant [3 x i8] c"vh\00", align 1
@globalUtilOptind = external global i32, align 4
@.str.18 = private unnamed_addr constant [62 x i8] c"\09-v      : toggles enabling of verbose output [default = %s]\0A\00", align 1
@.str.19 = private unnamed_addr constant [4 x i8] c"yes\00", align 1
@.str.20 = private unnamed_addr constant [3 x i8] c"no\00", align 1
@.str.21 = private unnamed_addr constant [36 x i8] c"\09-h      : print the command usage\0A\00", align 1
@.str.33 = private unnamed_addr constant [25 x i8] c"\0Ausage: print_lut [-vh]\0A\00", align 1
@.str.34 = private unnamed_addr constant [42 x i8] c"\09          print the current LUT library\0A\00", align 1

; Function Attrs: nounwind uwtable
define internal i32 @If_CommandPrintLut(ptr noundef %0, i32 noundef %1, ptr noundef %2) #0 {
  %4 = alloca i32, align 4
  %5 = alloca ptr, align 8
  %6 = alloca i32, align 4
  %7 = alloca ptr, align 8
  %8 = alloca ptr, align 8
  %9 = alloca ptr, align 8
  %10 = alloca ptr, align 8
  %11 = alloca i32, align 4
  %12 = alloca i32, align 4
  %13 = alloca i32, align 4
  store ptr %0, ptr %5, align 8, !tbaa !3
  store i32 %1, ptr %6, align 4, !tbaa !8
  store ptr %2, ptr %7, align 8, !tbaa !10
  call void @llvm.lifetime.start.p0(i64 8, ptr %8) #5
  call void @llvm.lifetime.start.p0(i64 8, ptr %9) #5
  call void @llvm.lifetime.start.p0(i64 8, ptr %10) #5
  call void @llvm.lifetime.start.p0(i64 4, ptr %11) #5
  call void @llvm.lifetime.start.p0(i64 4, ptr %12) #5
  %14 = load ptr, ptr %5, align 8, !tbaa !3
  %15 = call ptr @Abc_FrameReadNtk(ptr noundef %14)
  store ptr %15, ptr %10, align 8, !tbaa !12
  %16 = load ptr, ptr %5, align 8, !tbaa !3
  %17 = call ptr @Abc_FrameReadOut(ptr noundef %16)
  store ptr %17, ptr %8, align 8, !tbaa !14
  %18 = load ptr, ptr %5, align 8, !tbaa !3
  %19 = call ptr @Abc_FrameReadErr(ptr noundef %18)
  store ptr %19, ptr %9, align 8, !tbaa !14
  store i32 1, ptr %11, align 4, !tbaa !8
  call void (...) @Extra_UtilGetoptReset()
  br label %20

20:                                               ; preds = %32, %3
  %21 = load i32, ptr %6, align 4, !tbaa !8
  %22 = load ptr, ptr %7, align 8, !tbaa !10
  %23 = call i32 @Extra_UtilGetopt(i32 noundef %21, ptr noundef %22, ptr noundef @.str.6)
  store i32 %23, ptr %12, align 4, !tbaa !8
  %24 = icmp ne i32 %23, -1
  br i1 %24, label %25, label %33

25:                                               ; preds = %20
  %26 = load i32, ptr %12, align 4, !tbaa !8
  switch i32 %26, label %31 [
    i32 118, label %27
    i32 104, label %30
  ]

27:                                               ; preds = %25
  %28 = load i32, ptr %11, align 4, !tbaa !8
  %29 = xor i32 %28, 1
  store i32 %29, ptr %11, align 4, !tbaa !8
  br label %32

30:                                               ; preds = %25
  br label %40

31:                                               ; preds = %25
  br label %40

32:                                               ; preds = %27
  br label %20, !llvm.loop !22

33:                                               ; preds = %20
  %34 = load i32, ptr %6, align 4, !tbaa !8
  %35 = load i32, ptr @globalUtilOptind, align 4, !tbaa !8
  %36 = icmp ne i32 %34, %35
  br i1 %36, label %37, label %38

37:                                               ; preds = %33
  br label %40

38:                                               ; preds = %33
  %39 = call ptr (...) @Abc_FrameReadLibLut()
  call void @If_LibLutPrint(ptr noundef %39)
  store i32 0, ptr %4, align 4
  store i32 1, ptr %13, align 4
  br label %52

40:                                               ; preds = %37, %31, %30
  %41 = load ptr, ptr %9, align 8, !tbaa !14
  %42 = call i32 (ptr, ptr, ...) @fprintf(ptr noundef %41, ptr noundef @.str.33) #5
  %43 = load ptr, ptr %9, align 8, !tbaa !14
  %44 = call i32 (ptr, ptr, ...) @fprintf(ptr noundef %43, ptr noundef @.str.34) #5
  %45 = load ptr, ptr %9, align 8, !tbaa !14
  %46 = load i32, ptr %11, align 4, !tbaa !8
  %47 = icmp ne i32 %46, 0
  %48 = select i1 %47, ptr @.str.19, ptr @.str.20
  %49 = call i32 (ptr, ptr, ...) @fprintf(ptr noundef %45, ptr noundef @.str.18, ptr noundef %48) #5
  %50 = load ptr, ptr %9, align 8, !tbaa !14
  %51 = call i32 (ptr, ptr, ...) @fprintf(ptr noundef %50, ptr noundef @.str.21) #5
  store i32 1, ptr %4, align 4
  store i32 1, ptr %13, align 4
  br label %52

52:                                               ; preds = %40, %38
  call void @llvm.lifetime.end.p0(i64 4, ptr %12) #5
  call void @llvm.lifetime.end.p0(i64 4, ptr %11) #5
  call void @llvm.lifetime.end.p0(i64 8, ptr %10) #5
  call void @llvm.lifetime.end.p0(i64 8, ptr %9) #5
  call void @llvm.lifetime.end.p0(i64 8, ptr %8) #5
  %53 = load i32, ptr %4, align 4
  ret i32 %53
}