; Function Attrs: nounwind uwtable
define internal range(i32 0, 2) i32 @If_CommandPrintLut(ptr noundef %0, i32 noundef %1, ptr noundef %2) #0 {
  %4 = tail call ptr @Abc_FrameReadNtk(ptr noundef %0) #6
  %5 = tail call ptr @Abc_FrameReadOut(ptr noundef %0) #6
  %6 = tail call ptr @Abc_FrameReadErr(ptr noundef %0) #6
  tail call void (...) @Extra_UtilGetoptReset() #6
  br label %7

7:                                                ; preds = %9, %3
  %.013 = phi i32 [ 1, %3 ], [ %10, %9 ]
  %8 = tail call i32 @Extra_UtilGetopt(i32 noundef %1, ptr noundef %2, ptr noundef nonnull @.str.6) #6
  switch i32 %8, label %.loopexit [
    i32 -1, label %11
    i32 118, label %9
  ]

9:                                                ; preds = %7
  %10 = xor i32 %.013, 1
  br label %7, !llvm.loop !12

11:                                               ; preds = %7
  %12 = load i32, ptr @globalUtilOptind, align 4, !tbaa !5
  %.not15 = icmp eq i32 %1, %12
  br i1 %.not15, label %13, label %.loopexit

13:                                               ; preds = %11
  %14 = tail call ptr (...) @Abc_FrameReadLibLut() #6
  tail call void @If_LibLutPrint(ptr noundef %14) #6
  br label %20

.loopexit:                                        ; preds = %7, %11
  %15 = tail call i64 @fwrite(ptr nonnull @.str.33, i64 24, i64 1, ptr %6)
  %16 = tail call i64 @fwrite(ptr nonnull @.str.34, i64 41, i64 1, ptr %6)
  %.not16 = icmp eq i32 %.013, 0
  %17 = select i1 %.not16, ptr @.str.20, ptr @.str.19
  %18 = tail call i32 (ptr, ptr, ...) @fprintf(ptr noundef %6, ptr noundef nonnull @.str.18, ptr noundef nonnull %17) #6
  %19 = tail call i64 @fwrite(ptr nonnull @.str.21, i64 35, i64 1, ptr %6)
  br label %20

20:                                               ; preds = %.loopexit, %13
  %.0 = phi i32 [ 1, %.loopexit ], [ 0, %13 ]
  ret i32 %.0
}